target datalayout = "e-m:e-p270:32:32-p271:32:32-p272:64:64-i64:64-i128:128-f80:128-n8:16:32:64-S128"
target triple = "x86_64-pc-linux-gnu"

%class.V3ErrorCode = type { i8 }
%class.VInFilter = type { ptr }

@.str.14 = private unnamed_addr constant [112 x i8] c"generated/home/dtcxzyw/WorkSpace/Projects/compilers/llvm-opt-benchmark/bench/verilator/verilator/src/V3File.cpp\00", align 1
@.str.24 = private unnamed_addr constant [32 x i8] c"readWholefile on invalid filter\00", align 1

; Function Attrs: mustprogress nounwind uwtable
define linkonce_odr dso_local void @_ZN11V3ErrorCodeC2ENS_2enE(ptr noundef nonnull align 1 dereferenceable(1) %0, i8 noundef zeroext %1) unnamed_addr #7 comdat align 2 {
  %3 = alloca ptr, align 8
  %4 = alloca i8, align 1
  store ptr %0, ptr %3, align 8, !tbaa !27
  store i8 %1, ptr %4, align 1, !tbaa !29
  %5 = load ptr, ptr %3, align 8
  %6 = getelementptr inbounds nuw %class.V3ErrorCode, ptr %5, i32 0, i32 0
  %7 = load i8, ptr %4, align 1, !tbaa !29
  store i8 %7, ptr %6, align 1, !tbaa !31
  ret void
}

; Function Attrs: mustprogress uwtable
define dso_local noundef zeroext i1 @_ZN9VInFilter13readWholefileERKNSt7__cxx1112basic_stringIcSt11char_traitsIcESaIcEEERNS0_4listIS5_SaIS5_EEE(ptr noundef nonnull align 8 dereferenceable(8) %0, ptr noundef nonnull align 8 dereferenceable(32) %1, ptr noundef nonnull align 8 dereferenceable(24) %2) #5 align 2 {
  %4 = alloca ptr, align 8
  %5 = alloca ptr, align 8
  %6 = alloca ptr, align 8
  %7 = alloca %class.V3ErrorCode, align 1
  store ptr %0, ptr %4, align 8, !tbaa !129
  store ptr %1, ptr %5, align 8, !tbaa !9
  store ptr %2, ptr %6, align 8, !tbaa !142
  %8 = load ptr, ptr %4, align 8
  br label %9

9:                                                ; preds = %3
  %10 = getelementptr inbounds nuw %class.VInFilter, ptr %8, i32 0, i32 0
  %11 = load ptr, ptr %10, align 8, !tbaa !131
  %12 = icmp ne ptr %11, null
  %13 = xor i1 %12, true
  %14 = xor i1 %13, true
  %15 = xor i1 %14, true
  %16 = zext i1 %15 to i64
  %17 = call i64 @llvm.expect.i64(i64 %16, i64 0)
  %18 = icmp ne i64 %17, 0
  br i1 %18, label %19, label %25

19:                                               ; preds = %9
  call void @_ZN11V3ErrorCodeC2ENS_2enE(ptr noundef nonnull align 1 dereferenceable(1) %7, i8 noundef zeroext 4)
  %20 = getelementptr inbounds nuw %class.V3ErrorCode, ptr %7, i32 0, i32 0
  %21 = load i8, ptr %20, align 1
  %22 = call noundef nonnull align 8 dereferenceable(112) ptr @_ZN7V3Error19v3errorPrepFileLineB5cxx11E11V3ErrorCodePKci(i8 %21, ptr noundef @.str.14, i32 noundef 609)
  %23 = call noundef nonnull align 8 dereferenceable(112) ptr @_ZN7V3Error10v3errorStrB5cxx11Ev()
  %24 = call noundef nonnull align 8 dereferenceable(8) ptr @_ZStlsISt11char_traitsIcEERSt13basic_ostreamIcT_ES5_PKc(ptr noundef nonnull align 8 dereferenceable(8) %23, ptr noundef @.str.24)
  call void @_Z15v3errorEndFatalRNSt7__cxx1119basic_ostringstreamIcSt11char_traitsIcESaIcEEE(ptr noundef nonnull align 8 dereferenceable(112) %24) #23
  unreachable

25:                                               ; preds = %9
  br label %26

26:                                               ; preds = %25
  %27 = getelementptr inbounds nuw %class.VInFilter, ptr %8, i32 0, i32 0
  %28 = load ptr, ptr %27, align 8, !tbaa !131
  %29 = load ptr, ptr %5, align 8, !tbaa !9
  %30 = load ptr, ptr %6, align 8, !tbaa !142
  %31 = call noundef zeroext i1 @_ZN12VInFilterImp13readWholefileERKNSt7__cxx1112basic_stringIcSt11char_traitsIcESaIcEEERNS0_4listIS5_SaIS5_EEE(ptr noundef nonnull align 8 dereferenceable(72) %28, ptr noundef nonnull align 8 dereferenceable(32) %29, ptr noundef nonnull align 8 dereferenceable(24) %30)
  ret i1 %31
}