; Function Attrs: mustprogress uwtable
define dso_local noundef zeroext i1 @_ZN9VInFilter13readWholefileERKNSt7__cxx1112basic_stringIcSt11char_traitsIcESaIcEEERNS0_4listIS5_SaIS5_EEE(ptr noundef nonnull readonly align 8 captures(none) dereferenceable(8) %0, ptr noundef nonnull align 8 dereferenceable(32) %1, ptr noundef nonnull align 8 dereferenceable(24) %2) local_unnamed_addr #4 align 2 {
  %4 = load ptr, ptr %0, align 8, !tbaa !145
  %.not = icmp eq ptr %4, null
  br i1 %.not, label %5, label %9, !prof !88

5:                                                ; preds = %3
  %6 = tail call noundef nonnull align 8 dereferenceable(112) ptr @_ZN7V3Error19v3errorPrepFileLineB5cxx11E11V3ErrorCodePKci(i8 4, ptr noundef nonnull @.str.14, i32 noundef 609)
  %7 = tail call noundef nonnull align 8 dereferenceable(112) ptr @_ZN7V3Error10v3errorStrB5cxx11Ev()
  %8 = tail call noundef nonnull align 8 dereferenceable(8) ptr @_ZStlsISt11char_traitsIcEERSt13basic_ostreamIcT_ES5_PKc(ptr noundef nonnull align 8 dereferenceable(8) %7, ptr noundef nonnull @.str.24)
  tail call void @_Z15v3errorEndFatalRNSt7__cxx1119basic_ostringstreamIcSt11char_traitsIcESaIcEEE(ptr noundef nonnull align 8 dereferenceable(112) %8) #32
  unreachable

9:                                                ; preds = %3
  %10 = tail call noundef zeroext i1 @_ZN12VInFilterImp13readWholefileERKNSt7__cxx1112basic_stringIcSt11char_traitsIcESaIcEEERNS0_4listIS5_SaIS5_EEE(ptr noundef nonnull align 8 dereferenceable(72) %4, ptr noundef nonnull align 8 dereferenceable(32) %1, ptr noundef nonnull align 8 dereferenceable(24) %2)
  ret i1 %10
}